target datalayout = "e-m:e-p270:32:32-p271:32:32-p272:64:64-i64:64-i128:128-f80:128-n8:16:32:64-S128"
target triple = "x86_64-pc-linux-gnu"

%struct.DerBuffer = type { ptr, ptr, i32, i32, i32 }
%struct.EncryptedInfo = type { i64 }

; Function Attrs: inlinehint nounwind uwtable
define internal void @ForceZero(ptr noundef %0, i32 noundef %1) #5 {
  %3 = alloca ptr, align 8
  %4 = alloca i32, align 4
  %5 = alloca ptr, align 8
  %6 = alloca ptr, align 8
  %7 = alloca i32, align 4
  store ptr %0, ptr %3, align 8, !tbaa !64
  store i32 %1, ptr %4, align 4, !tbaa !3
  call void @llvm.lifetime.start.p0(i64 8, ptr %5) #9
  %8 = load ptr, ptr %3, align 8, !tbaa !64
  store ptr %8, ptr %5, align 8, !tbaa !7
  call void @llvm.lifetime.start.p0(i64 8, ptr %6) #9
  call void @llvm.lifetime.start.p0(i64 4, ptr %7) #9
  %9 = load ptr, ptr %5, align 8, !tbaa !7
  %10 = ptrtoint ptr %9 to i64
  %11 = and i64 %10, 7
  %12 = sub i64 8, %11
  %13 = and i64 %12, 7
  %14 = trunc i64 %13 to i32
  store i32 %14, ptr %7, align 4, !tbaa !3
  %15 = load i32, ptr %4, align 4, !tbaa !3
  %16 = load i32, ptr %7, align 4, !tbaa !3
  %17 = icmp ult i32 %15, %16
  br i1 %17, label %18, label %20

18:                                               ; preds = %2
  %19 = load i32, ptr %4, align 4, !tbaa !3
  store i32 %19, ptr %7, align 4, !tbaa !3
  br label %20

20:                                               ; preds = %18, %2
  %21 = load i32, ptr %7, align 4, !tbaa !3
  %22 = load i32, ptr %4, align 4, !tbaa !3
  %23 = sub i32 %22, %21
  store i32 %23, ptr %4, align 4, !tbaa !3
  br label %24

24:                                               ; preds = %28, %20
  %25 = load i32, ptr %7, align 4, !tbaa !3
  %26 = add i32 %25, -1
  store i32 %26, ptr %7, align 4, !tbaa !3
  %27 = icmp ne i32 %25, 0
  br i1 %27, label %28, label %31

28:                                               ; preds = %24
  %29 = load ptr, ptr %5, align 8, !tbaa !7
  %30 = getelementptr inbounds nuw i8, ptr %29, i32 1
  store ptr %30, ptr %5, align 8, !tbaa !7
  store volatile i8 0, ptr %29, align 1, !tbaa !10
  br label %24, !llvm.loop !73

31:                                               ; preds = %24
  %32 = load ptr, ptr %5, align 8, !tbaa !7
  store ptr %32, ptr %6, align 8, !tbaa !74
  br label %33

33:                                               ; preds = %40, %31
  %34 = load i32, ptr %4, align 4, !tbaa !3
  %35 = zext i32 %34 to i64
  %36 = icmp uge i64 %35, 8
  br i1 %36, label %37, label %43

37:                                               ; preds = %33
  %38 = load ptr, ptr %6, align 8, !tbaa !74
  %39 = getelementptr inbounds nuw i64, ptr %38, i32 1
  store ptr %39, ptr %6, align 8, !tbaa !74
  store volatile i64 0, ptr %38, align 8, !tbaa !76
  br label %40

40:                                               ; preds = %37
  %41 = load i32, ptr %4, align 4, !tbaa !3
  %42 = sub i32 %41, 8
  store i32 %42, ptr %4, align 4, !tbaa !3
  br label %33, !llvm.loop !78

43:                                               ; preds = %33
  %44 = load ptr, ptr %6, align 8, !tbaa !74
  store ptr %44, ptr %5, align 8, !tbaa !7
  br label %45

45:                                               ; preds = %49, %43
  %46 = load i32, ptr %4, align 4, !tbaa !3
  %47 = add i32 %46, -1
  store i32 %47, ptr %4, align 4, !tbaa !3
  %48 = icmp ne i32 %46, 0
  br i1 %48, label %49, label %52

49:                                               ; preds = %45
  %50 = load ptr, ptr %5, align 8, !tbaa !7
  %51 = getelementptr inbounds nuw i8, ptr %50, i32 1
  store ptr %51, ptr %5, align 8, !tbaa !7
  store volatile i8 0, ptr %50, align 1, !tbaa !10
  br label %45, !llvm.loop !79

52:                                               ; preds = %45
  call void @llvm.lifetime.end.p0(i64 4, ptr %7) #9
  call void @llvm.lifetime.end.p0(i64 8, ptr %6) #9
  call void @llvm.lifetime.end.p0(i64 8, ptr %5) #9
  ret void
}

; Function Attrs: nounwind uwtable
define void @FreeDer(ptr noundef %0) #0 {
  %2 = alloca ptr, align 8
  %3 = alloca ptr, align 8
  %4 = alloca ptr, align 8
  store ptr %0, ptr %2, align 8, !tbaa !205
  %5 = load ptr, ptr %2, align 8, !tbaa !205
  %6 = icmp ne ptr %5, null
  br i1 %6, label %7, label %50

7:                                                ; preds = %1
  %8 = load ptr, ptr %2, align 8, !tbaa !205
  %9 = load ptr, ptr %8, align 8, !tbaa !193
  %10 = icmp ne ptr %9, null
  br i1 %10, label %11, label %50

11:                                               ; preds = %7
  call void @llvm.lifetime.start.p0(i64 8, ptr %3) #9
  %12 = load ptr, ptr %2, align 8, !tbaa !205
  %13 = load ptr, ptr %12, align 8, !tbaa !193
  store ptr %13, ptr %3, align 8, !tbaa !193
  %14 = load ptr, ptr %3, align 8, !tbaa !193
  %15 = getelementptr inbounds nuw %struct.DerBuffer, ptr %14, i32 0, i32 3
  %16 = load i32, ptr %15, align 4, !tbaa !207
  %17 = icmp eq i32 %16, 1
  br i1 %17, label %23, label %18

18:                                               ; preds = %11
  %19 = load ptr, ptr %3, align 8, !tbaa !193
  %20 = getelementptr inbounds nuw %struct.DerBuffer, ptr %19, i32 0, i32 3
  %21 = load i32, ptr %20, align 4, !tbaa !207
  %22 = icmp eq i32 %21, 2
  br i1 %22, label %23, label %35

23:                                               ; preds = %18, %11
  %24 = load ptr, ptr %3, align 8, !tbaa !193
  %25 = getelementptr inbounds nuw %struct.DerBuffer, ptr %24, i32 0, i32 0
  %26 = load ptr, ptr %25, align 8, !tbaa !211
  %27 = icmp ne ptr %26, null
  br i1 %27, label %28, label %35

28:                                               ; preds = %23
  %29 = load ptr, ptr %3, align 8, !tbaa !193
  %30 = getelementptr inbounds nuw %struct.DerBuffer, ptr %29, i32 0, i32 0
  %31 = load ptr, ptr %30, align 8, !tbaa !211
  %32 = load ptr, ptr %3, align 8, !tbaa !193
  %33 = getelementptr inbounds nuw %struct.DerBuffer, ptr %32, i32 0, i32 2
  %34 = load i32, ptr %33, align 8, !tbaa !212
  call void @ForceZero(ptr noundef %31, i32 noundef %34)
  br label %35

35:                                               ; preds = %28, %23, %18
  %36 = load ptr, ptr %3, align 8, !tbaa !193
  %37 = getelementptr inbounds nuw %struct.DerBuffer, ptr %36, i32 0, i32 0
  store ptr null, ptr %37, align 8, !tbaa !211
  %38 = load ptr, ptr %3, align 8, !tbaa !193
  %39 = getelementptr inbounds nuw %struct.DerBuffer, ptr %38, i32 0, i32 2
  store i32 0, ptr %39, align 8, !tbaa !212
  br label %40

40:                                               ; preds = %35
  call void @llvm.lifetime.start.p0(i64 8, ptr %4) #9
  %41 = load ptr, ptr %3, align 8, !tbaa !193
  store ptr %41, ptr %4, align 8, !tbaa !64
  %42 = load ptr, ptr %4, align 8, !tbaa !64
  %43 = icmp ne ptr %42, null
  br i1 %43, label %44, label %46

44:                                               ; preds = %40
  %45 = load ptr, ptr %4, align 8, !tbaa !64
  call void @wolfSSL_Free(ptr noundef %45)
  br label %46

46:                                               ; preds = %44, %40
  call void @llvm.lifetime.end.p0(i64 8, ptr %4) #9
  br label %47

47:                                               ; preds = %46
  br label %48

48:                                               ; preds = %47
  %49 = load ptr, ptr %2, align 8, !tbaa !205
  store ptr null, ptr %49, align 8, !tbaa !193
  call void @llvm.lifetime.end.p0(i64 8, ptr %3) #9
  br label %50

50:                                               ; preds = %48, %7, %1
  ret void
}

; Function Attrs: nounwind uwtable
define i32 @wc_KeyPemToDer(ptr noundef %0, i32 noundef %1, ptr noundef %2, i32 noundef %3, ptr noundef %4) #0 {
  %6 = alloca i32, align 4
  %7 = alloca ptr, align 8
  %8 = alloca i32, align 4
  %9 = alloca ptr, align 8
  %10 = alloca i32, align 4
  %11 = alloca ptr, align 8
  %12 = alloca i32, align 4
  %13 = alloca ptr, align 8
  %14 = alloca [1 x %struct.EncryptedInfo], align 8
  %15 = alloca i32, align 4
  store ptr %0, ptr %7, align 8, !tbaa !7
  store i32 %1, ptr %8, align 4, !tbaa !3
  store ptr %2, ptr %9, align 8, !tbaa !7
  store i32 %3, ptr %10, align 4, !tbaa !3
  store ptr %4, ptr %11, align 8, !tbaa !7
  call void @llvm.lifetime.start.p0(i64 4, ptr %12) #9
  call void @llvm.lifetime.start.p0(i64 8, ptr %13) #9
  store ptr null, ptr %13, align 8, !tbaa !193
  call void @llvm.lifetime.start.p0(i64 8, ptr %14) #9
  br label %16

16:                                               ; preds = %5
  br label %17

17:                                               ; preds = %16
  br label %18

18:                                               ; preds = %17
  %19 = load ptr, ptr %7, align 8, !tbaa !7
  %20 = icmp eq ptr %19, null
  br i1 %20, label %27, label %21

21:                                               ; preds = %18
  %22 = load ptr, ptr %9, align 8, !tbaa !7
  %23 = icmp ne ptr %22, null
  br i1 %23, label %24, label %31

24:                                               ; preds = %21
  %25 = load i32, ptr %10, align 4, !tbaa !3
  %26 = icmp sle i32 %25, 0
  br i1 %26, label %27, label %31

27:                                               ; preds = %24, %18
  br label %28

28:                                               ; preds = %27
  br label %29

29:                                               ; preds = %28
  br label %30

30:                                               ; preds = %29
  store i32 -173, ptr %6, align 4
  store i32 1, ptr %15, align 4
  br label %83

31:                                               ; preds = %24, %21
  %32 = getelementptr inbounds [1 x %struct.EncryptedInfo], ptr %14, i64 0, i64 0
  call void @llvm.memset.p0.i64(ptr align 8 %32, i8 0, i64 8, i1 false)
  %33 = load ptr, ptr %7, align 8, !tbaa !7
  %34 = load i32, ptr %8, align 4, !tbaa !3
  %35 = sext i32 %34 to i64
  %36 = getelementptr inbounds [1 x %struct.EncryptedInfo], ptr %14, i64 0, i64 0
  %37 = call i32 @PemToDer(ptr noundef %33, i64 noundef %35, i32 noundef 1, ptr noundef %13, ptr noundef null, ptr noundef %36, ptr noundef null)
  store i32 %37, ptr %12, align 4, !tbaa !3
  %38 = load i32, ptr %12, align 4, !tbaa !3
  %39 = icmp slt i32 %38, 0
  br i1 %39, label %43, label %40

40:                                               ; preds = %31
  %41 = load ptr, ptr %13, align 8, !tbaa !193
  %42 = icmp eq ptr %41, null
  br i1 %42, label %43, label %47

43:                                               ; preds = %40, %31
  br label %44

44:                                               ; preds = %43
  br label %45

45:                                               ; preds = %44
  br label %46

46:                                               ; preds = %45
  br label %81

47:                                               ; preds = %40
  %48 = load ptr, ptr %9, align 8, !tbaa !7
  %49 = icmp eq ptr %48, null
  br i1 %49, label %50, label %57

50:                                               ; preds = %47
  br label %51

51:                                               ; preds = %50
  br label %52

52:                                               ; preds = %51
  br label %53

53:                                               ; preds = %52
  %54 = load ptr, ptr %13, align 8, !tbaa !193
  %55 = getelementptr inbounds nuw %struct.DerBuffer, ptr %54, i32 0, i32 2
  %56 = load i32, ptr %55, align 8, !tbaa !212
  store i32 %56, ptr %12, align 4, !tbaa !3
  br label %80

57:                                               ; preds = %47
  %58 = load ptr, ptr %13, align 8, !tbaa !193
  %59 = getelementptr inbounds nuw %struct.DerBuffer, ptr %58, i32 0, i32 2
  %60 = load i32, ptr %59, align 8, !tbaa !212
  %61 = load i32, ptr %10, align 4, !tbaa !3
  %62 = icmp ule i32 %60, %61
  br i1 %62, label %63, label %75

63:                                               ; preds = %57
  %64 = load ptr, ptr %9, align 8, !tbaa !7
  %65 = load ptr, ptr %13, align 8, !tbaa !193
  %66 = getelementptr inbounds nuw %struct.DerBuffer, ptr %65, i32 0, i32 0
  %67 = load ptr, ptr %66, align 8, !tbaa !211
  %68 = load ptr, ptr %13, align 8, !tbaa !193
  %69 = getelementptr inbounds nuw %struct.DerBuffer, ptr %68, i32 0, i32 2
  %70 = load i32, ptr %69, align 8, !tbaa !212
  %71 = zext i32 %70 to i64
  call void @llvm.memcpy.p0.p0.i64(ptr align 1 %64, ptr align 1 %67, i64 %71, i1 false)
  %72 = load ptr, ptr %13, align 8, !tbaa !193
  %73 = getelementptr inbounds nuw %struct.DerBuffer, ptr %72, i32 0, i32 2
  %74 = load i32, ptr %73, align 8, !tbaa !212
  store i32 %74, ptr %12, align 4, !tbaa !3
  br label %79

75:                                               ; preds = %57
  br label %76

76:                                               ; preds = %75
  br label %77

77:                                               ; preds = %76
  br label %78

78:                                               ; preds = %77
  store i32 -173, ptr %12, align 4, !tbaa !3
  br label %79

79:                                               ; preds = %78, %63
  br label %80

80:                                               ; preds = %79, %53
  br label %81

81:                                               ; preds = %80, %46
  call void @FreeDer(ptr noundef %13)
  %82 = load i32, ptr %12, align 4, !tbaa !3
  store i32 %82, ptr %6, align 4
  store i32 1, ptr %15, align 4
  br label %83

83:                                               ; preds = %81, %30
  call void @llvm.lifetime.end.p0(i64 8, ptr %14) #9
  call void @llvm.lifetime.end.p0(i64 8, ptr %13) #9
  call void @llvm.lifetime.end.p0(i64 4, ptr %12) #9
  %84 = load i32, ptr %6, align 4
  ret i32 %84
}