; Function Attrs: nounwind uwtable
define i32 @wc_KeyPemToDer(ptr noundef %0, i32 noundef %1, ptr noundef writeonly captures(address_is_null) %2, i32 noundef %3, ptr noundef readnone captures(none) %4) local_unnamed_addr #2 {
  %6 = alloca ptr, align 8
  %7 = alloca [1 x %struct.EncryptedInfo], align 8
  call void @llvm.lifetime.start.p0(i64 8, ptr nonnull %6) #22
  store ptr null, ptr %6, align 8, !tbaa !195
  call void @llvm.lifetime.start.p0(i64 8, ptr nonnull %7) #22
  %8 = icmp eq ptr %0, null
  br i1 %8, label %FreeDer.exit, label %9

9:                                                ; preds = %5
  %10 = icmp ne ptr %2, null
  %11 = icmp slt i32 %3, 1
  %or.cond = and i1 %10, %11
  br i1 %or.cond, label %FreeDer.exit, label %12

12:                                               ; preds = %9
  store i64 0, ptr %7, align 8
  %13 = sext i32 %1 to i64
  %14 = call i32 @PemToDer(ptr noundef nonnull %0, i64 noundef %13, i32 noundef 1, ptr noundef nonnull %6, ptr noundef null, ptr noundef nonnull %7, ptr noundef null)
  %15 = icmp slt i32 %14, 0
  %16 = load ptr, ptr %6, align 8
  %17 = icmp eq ptr %16, null
  %or.cond3 = select i1 %15, i1 true, i1 %17
  br i1 %or.cond3, label %27, label %18

18:                                               ; preds = %12
  %19 = icmp eq ptr %2, null
  %20 = getelementptr inbounds nuw i8, ptr %16, i64 16
  %21 = load i32, ptr %20, align 8, !tbaa !202
  br i1 %19, label %.thread, label %22

22:                                               ; preds = %18
  %.not = icmp ugt i32 %21, %3
  br i1 %.not, label %.thread, label %23

23:                                               ; preds = %22
  %24 = load ptr, ptr %16, align 8, !tbaa !201
  %25 = zext i32 %21 to i64
  call void @llvm.memcpy.p0.p0.i64(ptr nonnull align 1 %2, ptr align 1 %24, i64 %25, i1 false)
  %26 = load i32, ptr %20, align 8, !tbaa !202
  br label %.thread

27:                                               ; preds = %12
  br i1 %17, label %FreeDer.exit, label %.thread

.thread:                                          ; preds = %18, %23, %22, %27
  %.019 = phi i32 [ %14, %27 ], [ -173, %22 ], [ %26, %23 ], [ %21, %18 ]
  %28 = getelementptr inbounds nuw i8, ptr %16, i64 20
  %29 = load i32, ptr %28, align 4, !tbaa !197
  %.off.i = add i32 %29, -1
  %switch.i = icmp ult i32 %.off.i, 2
  br i1 %switch.i, label %30, label %ForceZero.exit.i

30:                                               ; preds = %.thread
  %31 = load ptr, ptr %16, align 8, !tbaa !201
  %.not18.i = icmp eq ptr %31, null
  br i1 %.not18.i, label %ForceZero.exit.i, label %32

32:                                               ; preds = %30
  %33 = getelementptr inbounds nuw i8, ptr %16, i64 16
  %34 = load i32, ptr %33, align 8, !tbaa !202
  %35 = ptrtoint ptr %31 to i64
  %36 = trunc i64 %35 to i32
  %37 = sub i32 0, %36
  %38 = and i32 %37, 7
  %spec.select.i.i = call i32 @llvm.umin.i32(i32 %34, i32 %38)
  %39 = sub i32 %34, %spec.select.i.i
  %.not24.i.i = icmp eq i32 %spec.select.i.i, 0
  br i1 %.not24.i.i, label %.preheader23.i.i, label %.lr.ph.i.i

.preheader23.i.i:                                 ; preds = %.lr.ph.i.i, %32
  %.016.lcssa.i.i = phi ptr [ %31, %32 ], [ %42, %.lr.ph.i.i ]
  %40 = icmp ugt i32 %39, 7
  br i1 %40, label %.lr.ph29.i.i, label %.preheader.i.i

.lr.ph.i.i:                                       ; preds = %32, %.lr.ph.i.i
  %.126.i.i = phi i32 [ %41, %.lr.ph.i.i ], [ %spec.select.i.i, %32 ]
  %.01625.i.i = phi ptr [ %42, %.lr.ph.i.i ], [ %31, %32 ]
  %41 = add nsw i32 %.126.i.i, -1
  %42 = getelementptr inbounds nuw i8, ptr %.01625.i.i, i64 1
  store volatile i8 0, ptr %.01625.i.i, align 1, !tbaa !3
  %.not.i.i = icmp eq i32 %41, 0
  br i1 %.not.i.i, label %.preheader23.i.i, label %.lr.ph.i.i, !llvm.loop !59

.preheader.i.i:                                   ; preds = %.lr.ph29.i.i, %.preheader23.i.i
  %.018.lcssa.i.i = phi i32 [ %39, %.preheader23.i.i ], [ %44, %.lr.ph29.i.i ]
  %.015.lcssa.i.i = phi ptr [ %.016.lcssa.i.i, %.preheader23.i.i ], [ %43, %.lr.ph29.i.i ]
  %.not2232.i.i = icmp eq i32 %.018.lcssa.i.i, 0
  br i1 %.not2232.i.i, label %ForceZero.exit.i, label %.lr.ph35.i.i

.lr.ph29.i.i:                                     ; preds = %.preheader23.i.i, %.lr.ph29.i.i
  %.01528.i.i = phi ptr [ %43, %.lr.ph29.i.i ], [ %.016.lcssa.i.i, %.preheader23.i.i ]
  %.01827.i.i = phi i32 [ %44, %.lr.ph29.i.i ], [ %39, %.preheader23.i.i ]
  %43 = getelementptr inbounds nuw i8, ptr %.01528.i.i, i64 8
  store volatile i64 0, ptr %.01528.i.i, align 8, !tbaa !52
  %44 = add i32 %.01827.i.i, -8
  %45 = icmp ugt i32 %44, 7
  br i1 %45, label %.lr.ph29.i.i, label %.preheader.i.i, !llvm.loop !60

.lr.ph35.i.i:                                     ; preds = %.preheader.i.i, %.lr.ph35.i.i
  %.11734.i.i = phi ptr [ %47, %.lr.ph35.i.i ], [ %.015.lcssa.i.i, %.preheader.i.i ]
  %.11933.i.i = phi i32 [ %46, %.lr.ph35.i.i ], [ %.018.lcssa.i.i, %.preheader.i.i ]
  %46 = add i32 %.11933.i.i, -1
  %47 = getelementptr inbounds nuw i8, ptr %.11734.i.i, i64 1
  store volatile i8 0, ptr %.11734.i.i, align 1, !tbaa !3
  %.not22.i.i = icmp eq i32 %46, 0
  br i1 %.not22.i.i, label %ForceZero.exit.i, label %.lr.ph35.i.i, !llvm.loop !61

ForceZero.exit.i:                                 ; preds = %.lr.ph35.i.i, %.preheader.i.i, %30, %.thread
  store ptr null, ptr %16, align 8, !tbaa !201
  %48 = getelementptr inbounds nuw i8, ptr %16, i64 16
  store i32 0, ptr %48, align 8, !tbaa !202
  call void @wolfSSL_Free(ptr noundef nonnull %16) #22
  br label %FreeDer.exit

FreeDer.exit:                                     ; preds = %ForceZero.exit.i, %27, %9, %5
  %.013 = phi i32 [ -173, %5 ], [ -173, %9 ], [ %14, %27 ], [ %.019, %ForceZero.exit.i ]
  call void @llvm.lifetime.end.p0(i64 8, ptr nonnull %7) #22
  call void @llvm.lifetime.end.p0(i64 8, ptr nonnull %6) #22
  ret i32 %.013
}